; Function Attrs: mustprogress uwtable
define void @_Z8pr_int64P8_IO_FILEiPKcl(ptr nocapture noundef %0, i32 noundef %1, ptr noundef %2, i64 noundef %3) local_unnamed_addr #3 {
  %5 = alloca [22 x i8], align 16
  %6 = icmp sgt i32 %1, 0
  br i1 %6, label %.lr.ph.i, label %_Z9pr_indentP8_IO_FILEi.exit

.lr.ph.i:                                         ; preds = %4, %.lr.ph.i
  %.05.i = phi i32 [ %7, %.lr.ph.i ], [ 0, %4 ]
  %fputc.i = tail call i32 @fputc(i32 32, ptr %0)
  %7 = add nuw nsw i32 %.05.i, 1
  %exitcond.not.i = icmp eq i32 %7, %1
  br i1 %exitcond.not.i, label %_Z9pr_indentP8_IO_FILEi.exit, label %.lr.ph.i, !llvm.loop !5

_Z9pr_indentP8_IO_FILEi.exit:                     ; preds = %.lr.ph.i, %4
  %8 = call noundef ptr @_Z12gmx_step_strlPc(i64 noundef %3, ptr noundef nonnull %5)
  %9 = call i32 (ptr, ptr, ...) @fprintf(ptr noundef %0, ptr noundef nonnull @.str.15, ptr noundef %2, ptr noundef %8) #6
  ret void
}